; Function Attrs: nounwind uwtable
define noalias ptr @l_Lean_Compiler_LCNF_Simp_attachCodeDecls(ptr noundef readonly captures(none) %0, ptr noundef %1, ptr noundef readnone captures(none) %2, ptr noundef %3, ptr noundef readnone captures(none) %4, ptr noundef %5, ptr noundef %6, ptr noundef %7, ptr noundef %8, ptr noundef %9) local_unnamed_addr #0 {
  %11 = getelementptr i8, ptr %0, i64 8
  %.val = load i64, ptr %11, align 8, !tbaa !12
  %12 = shl i64 %.val, 1
  %13 = or disjoint i64 %12, 1
  %14 = inttoptr i64 %13 to ptr
  %15 = tail call ptr @l_Lean_Compiler_LCNF_Simp_attachCodeDecls_go(ptr noundef %0, ptr noundef nonnull %14, ptr noundef %1, ptr noundef %2, ptr noundef %3, ptr noundef %4, ptr noundef %5, ptr noundef %6, ptr noundef %7, ptr noundef %8, ptr noundef %9)
  ret ptr %15
}